; Function Attrs: nounwind sspstrong uwtable
define internal void @usb_ehci_pci_exit(ptr noundef %dev) #0 {
entry:
  %call.i = tail call ptr @object_dynamic_cast_assert(ptr noundef %dev, ptr noundef nonnull @.str, ptr noundef nonnull @.str.6, i32 noundef 331, ptr noundef nonnull @__func__.PCI_EHCI) #4
  %ehci = getelementptr inbounds nuw i8, ptr %call.i, i64 2608
  %call.i4 = tail call ptr @object_dynamic_cast_assert(ptr noundef %dev, ptr noundef nonnull @.str.3, ptr noundef nonnull @.str.4, i32 noundef 77, ptr noundef nonnull @__func__.DEVICE) #4
  tail call void @usb_ehci_unrealize(ptr noundef nonnull %ehci, ptr noundef %call.i4) #4
  %irq = getelementptr inbounds nuw i8, ptr %call.i, i64 2808
  %0 = load ptr, ptr %irq, align 8
  tail call void @g_free(ptr noundef %0) #4
  store ptr null, ptr %irq, align 8
  ret void
}